EXPORTS
	_ZTI12CVpnUiLoader @ 1 NONAME ; #<TI>#
	_ZTI12CVpnUiRunner @ 2 NONAME ; #<TI>#
	_ZTI14CAcuApiWrapper @ 3 NONAME ; #<TI>#
	_ZTI14CVpnApiWrapper @ 4 NONAME ; #<TI>#
	_ZTI16CVpnManagementUi @ 5 NONAME ; #<TI>#
	_ZTI19CServerSettingsView @ 6 NONAME ; #<TI>#
	_ZTI20CVpnManagementUiView @ 7 NONAME ; #<TI>#
	_ZTI23CVpnManagementUiLogView @ 8 NONAME ; #<TI>#
	_ZTI24CServerSettingsContainer @ 9 NONAME ; #<TI>#
	_ZTI25CVpnManagementUiContainer @ 10 NONAME ; #<TI>#
	_ZTI26CVpnManagementUiPolicyView @ 11 NONAME ; #<TI>#
	_ZTI26CVpnManagementUiServerView @ 12 NONAME ; #<TI>#
	_ZTI28CVpnManagementUiLogContainer @ 13 NONAME ; #<TI>#
	_ZTI31CVpnManagementUiPolicyContainer @ 14 NONAME ; #<TI>#
	_ZTI31CVpnManagementUiServerContainer @ 15 NONAME ; #<TI>#
	_ZTV12CVpnUiLoader @ 16 NONAME ; #<VT>#
	_ZTV12CVpnUiRunner @ 17 NONAME ; #<VT>#
	_ZTV14CAcuApiWrapper @ 18 NONAME ; #<VT>#
	_ZTV14CVpnApiWrapper @ 19 NONAME ; #<VT>#
	_ZTV16CVpnManagementUi @ 20 NONAME ; #<VT>#
	_ZTV19CServerSettingsView @ 21 NONAME ; #<VT>#
	_ZTV20CVpnManagementUiView @ 22 NONAME ; #<VT>#
	_ZTV23CVpnManagementUiLogView @ 23 NONAME ; #<VT>#
	_ZTV24CServerSettingsContainer @ 24 NONAME ; #<VT>#
	_ZTV25CVpnManagementUiContainer @ 25 NONAME ; #<VT>#
	_ZTV26CVpnManagementUiPolicyView @ 26 NONAME ; #<VT>#
	_ZTV26CVpnManagementUiServerView @ 27 NONAME ; #<VT>#
	_ZTV28CVpnManagementUiLogContainer @ 28 NONAME ; #<VT>#
	_ZTV31CVpnManagementUiPolicyContainer @ 29 NONAME ; #<VT>#
	_ZTV31CVpnManagementUiServerContainer @ 30 NONAME ; #<VT>#
	_Z24ImplementationGroupProxyRi @ 31 NONAME

